target datalayout = "e-m:e-p270:32:32-p271:32:32-p272:64:64-i64:64-i128:128-f80:128-n8:16:32:64-S128"
target triple = "x86_64-pc-linux-gnu"

%struct.AVFormatContext = type { ptr, ptr, ptr, ptr, ptr, i32, i32, ptr, i32, ptr, i32, ptr, ptr, i64, i64, i64, i32, i32, i32, i64, i64, ptr, i32, i32, ptr, i32, i32, i32, i32, ptr, i64, i32, i32, %struct.AVIOInterruptCB, i32, i32, i32, i32, i64, i32, i32, i32, i32, i32, i32, i32, i32, i32, i32, i32, i32, i64, i32, i32, i32, i32, i32, ptr, ptr, ptr, ptr, i32, ptr, ptr, ptr, ptr, i32, ptr, ptr, i64, ptr, ptr, ptr, i64 }
%struct.AVIOInterruptCB = type { ptr, ptr }
%struct.AVStream = type { ptr, i32, i32, ptr, ptr, %struct.AVRational, i64, i64, i64, i32, i32, %struct.AVRational, ptr, %struct.AVRational, %struct.AVPacket, i32, %struct.AVRational, i32 }
%struct.AVPacket = type { ptr, i64, i64, ptr, i32, i32, i32, ptr, i32, i64, i64, ptr, ptr, %struct.AVRational }
%struct.AVRational = type { i32, i32 }
%struct.OGGStreamContext = type { i32, [3 x ptr], [3 x i32], i32, i64, i32, i32, i32, i32, %struct.OGGPage, i32, i64 }
%struct.OGGPage = type { i64, i64, i32, i8, i8, [255 x i8], [65025 x i8], i16 }

; Function Attrs: nounwind uwtable
define internal i32 @ogg_write_trailer(ptr noundef %0) #0 {
  %2 = alloca ptr, align 8
  %3 = alloca i32, align 4
  %4 = alloca ptr, align 8
  store ptr %0, ptr %2, align 8, !tbaa !4
  call void @llvm.lifetime.start.p0(i64 4, ptr %3) #9
  store i32 0, ptr %3, align 4, !tbaa !11
  br label %5

5:                                                ; preds = %31, %1
  %6 = load i32, ptr %3, align 4, !tbaa !11
  %7 = load ptr, ptr %2, align 8, !tbaa !4
  %8 = getelementptr inbounds nuw %struct.AVFormatContext, ptr %7, i32 0, i32 6
  %9 = load i32, ptr %8, align 4, !tbaa !13
  %10 = icmp ult i32 %6, %9
  br i1 %10, label %11, label %34

11:                                               ; preds = %5
  call void @llvm.lifetime.start.p0(i64 8, ptr %4) #9
  %12 = load ptr, ptr %2, align 8, !tbaa !4
  %13 = getelementptr inbounds nuw %struct.AVFormatContext, ptr %12, i32 0, i32 7
  %14 = load ptr, ptr %13, align 8, !tbaa !29
  %15 = load i32, ptr %3, align 4, !tbaa !11
  %16 = sext i32 %15 to i64
  %17 = getelementptr inbounds ptr, ptr %14, i64 %16
  %18 = load ptr, ptr %17, align 8, !tbaa !30
  %19 = getelementptr inbounds nuw %struct.AVStream, ptr %18, i32 0, i32 4
  %20 = load ptr, ptr %19, align 8, !tbaa !32
  store ptr %20, ptr %4, align 8, !tbaa !9
  %21 = load ptr, ptr %4, align 8, !tbaa !9
  %22 = getelementptr inbounds nuw %struct.OGGStreamContext, ptr %21, i32 0, i32 9
  %23 = getelementptr inbounds nuw %struct.OGGPage, ptr %22, i32 0, i32 4
  %24 = load i8, ptr %23, align 1, !tbaa !53
  %25 = icmp ne i8 %24, 0
  br i1 %25, label %26, label %30

26:                                               ; preds = %11
  %27 = load ptr, ptr %2, align 8, !tbaa !4
  %28 = load ptr, ptr %4, align 8, !tbaa !9
  %29 = call i32 @ogg_buffer_page(ptr noundef %27, ptr noundef %28)
  br label %30

30:                                               ; preds = %26, %11
  call void @llvm.lifetime.end.p0(i64 8, ptr %4) #9
  br label %31

31:                                               ; preds = %30
  %32 = load i32, ptr %3, align 4, !tbaa !11
  %33 = add nsw i32 %32, 1
  store i32 %33, ptr %3, align 4, !tbaa !11
  br label %5, !llvm.loop !55

34:                                               ; preds = %5
  %35 = load ptr, ptr %2, align 8, !tbaa !4
  call void @ogg_write_pages(ptr noundef %35, i32 noundef 1)
  call void @llvm.lifetime.end.p0(i64 4, ptr %3) #9
  ret i32 0
}