; Function Attrs: nounwind uwtable
define internal noundef i32 @ogg_write_trailer(ptr noundef readonly captures(none) %0) #0 {
  %2 = getelementptr inbounds nuw i8, ptr %0, i64 44
  %3 = load i32, ptr %2, align 4, !tbaa !4
  %.not9 = icmp eq i32 %3, 0
  br i1 %.not9, label %._crit_edge, label %.lr.ph

.lr.ph:                                           ; preds = %1
  %4 = getelementptr inbounds nuw i8, ptr %0, i64 48
  br label %5

5:                                                ; preds = %.lr.ph, %15
  %6 = phi i32 [ %3, %.lr.ph ], [ %16, %15 ]
  %indvars.iv = phi i64 [ 0, %.lr.ph ], [ %indvars.iv.next, %15 ]
  %7 = load ptr, ptr %4, align 8, !tbaa !24
  %8 = getelementptr inbounds nuw ptr, ptr %7, i64 %indvars.iv
  %9 = load ptr, ptr %8, align 8, !tbaa !25
  %10 = getelementptr inbounds nuw i8, ptr %9, i64 24
  %11 = load ptr, ptr %10, align 8, !tbaa !27
  %12 = getelementptr inbounds nuw i8, ptr %11, i64 93
  %13 = load i8, ptr %12, align 1, !tbaa !60
  %.not = icmp eq i8 %13, 0
  br i1 %.not, label %15, label %14

14:                                               ; preds = %5
  tail call fastcc void @ogg_buffer_page(ptr noundef nonnull %0, ptr noundef nonnull %11)
  %.pre = load i32, ptr %2, align 4, !tbaa !4
  br label %15

15:                                               ; preds = %14, %5
  %16 = phi i32 [ %.pre, %14 ], [ %6, %5 ]
  %indvars.iv.next = add nuw nsw i64 %indvars.iv, 1
  %17 = zext i32 %16 to i64
  %18 = icmp samesign ult i64 %indvars.iv.next, %17
  br i1 %18, label %5, label %._crit_edge, !llvm.loop !84

._crit_edge:                                      ; preds = %15, %1
  tail call fastcc void @ogg_write_pages(ptr noundef nonnull %0, i32 noundef 1)
  ret i32 0
}